(dp1
S'sort_id'
p2
NsS'sort_order'
p3
NsS'columns'
p4
(dp5
S'Prioridad'
p6
(dp7
S'position'
p8
I3
sS'width'
p9
I1081
ssS'Tama\xc3\xb1o'
p10
(dp11
g8
I1
sg9
I55
ssS'Nombre de archivo'
p12
(dp13
g8
I0
sg9
I200
ssS'Progreso'
p14
(dp15
g8
I2
sg9
I100
sss.