(dp1
S'sort_id'
p2
NsS'sort_order'
p3
NsS'columns'
p4
(dp5
S'V.Subida'
p6
(dp7
S'position'
p8
I5
sS'width'
p9
I1043
ssS'Progreso'
p10
(dp11
g8
I3
sg9
I100
ssS'Direcci\xc3\xb3n'
p12
(dp13
g8
I1
sg9
I100
ssN(dp14
g8
I0
sg9
I20
ssS'V.Descarga'
p15
(dp16
g8
I4
sg9
I73
ssS'Cliente'
p17
(dp18
g8
I2
sg9
I100
sss.